target datalayout = "e-m:e-p270:32:32-p271:32:32-p272:64:64-i64:64-i128:128-f80:128-n8:16:32:64-S128"
target triple = "x86_64-pc-linux-gnu"

%struct.namelist_t = type { ptr, i32, i32 }
%struct.namelist_entry_t = type { ptr, ptr, i32 }

; Function Attrs: nounwind uwtable
define dso_local void @namelist_free(ptr noundef %0) #0 {
  %2 = alloca ptr, align 8
  %3 = alloca ptr, align 8
  store ptr %0, ptr %2, align 8
  br label %4

4:                                                ; preds = %9, %1
  %5 = load ptr, ptr %2, align 8
  %6 = getelementptr inbounds %struct.namelist_t, ptr %5, i32 0, i32 1
  %7 = load i32, ptr %6, align 8
  %8 = icmp sgt i32 %7, 0
  br i1 %8, label %9, label %25

9:                                                ; preds = %4
  %10 = load ptr, ptr %2, align 8
  %11 = getelementptr inbounds %struct.namelist_t, ptr %10, i32 0, i32 0
  %12 = load ptr, ptr %11, align 8
  %13 = load ptr, ptr %2, align 8
  %14 = getelementptr inbounds %struct.namelist_t, ptr %13, i32 0, i32 1
  %15 = load i32, ptr %14, align 8
  %16 = add i32 %15, -1
  store i32 %16, ptr %14, align 8
  %17 = sext i32 %16 to i64
  %18 = getelementptr %struct.namelist_entry_t, ptr %12, i64 %17
  store ptr %18, ptr %3, align 8
  %19 = load ptr, ptr %3, align 8
  %20 = getelementptr inbounds %struct.namelist_entry_t, ptr %19, i32 0, i32 0
  %21 = load ptr, ptr %20, align 8
  call void @free(ptr noundef %21) #9
  %22 = load ptr, ptr %3, align 8
  %23 = getelementptr inbounds %struct.namelist_entry_t, ptr %22, i32 0, i32 1
  %24 = load ptr, ptr %23, align 8
  call void @free(ptr noundef %24) #9
  br label %4, !llvm.loop !7

25:                                               ; preds = %4
  %26 = load ptr, ptr %2, align 8
  %27 = getelementptr inbounds %struct.namelist_t, ptr %26, i32 0, i32 0
  %28 = load ptr, ptr %27, align 8
  call void @free(ptr noundef %28) #9
  %29 = load ptr, ptr %2, align 8
  %30 = getelementptr inbounds %struct.namelist_t, ptr %29, i32 0, i32 0
  store ptr null, ptr %30, align 8
  %31 = load ptr, ptr %2, align 8
  %32 = getelementptr inbounds %struct.namelist_t, ptr %31, i32 0, i32 2
  store i32 0, ptr %32, align 4
  ret void
}