; Function Attrs: nounwind uwtable
define dso_local void @namelist_free(ptr nocapture noundef %0) local_unnamed_addr #3 {
  %2 = getelementptr inbounds i8, ptr %0, i64 8
  %3 = load i32, ptr %2, align 8
  %4 = icmp sgt i32 %3, 0
  br i1 %4, label %.lr.ph, label %._crit_edge

.lr.ph:                                           ; preds = %1, %.lr.ph
  %5 = phi i32 [ %13, %.lr.ph ], [ %3, %1 ]
  %6 = load ptr, ptr %0, align 8
  %7 = add nsw i32 %5, -1
  store i32 %7, ptr %2, align 8
  %8 = zext nneg i32 %7 to i64
  %9 = getelementptr %struct.namelist_entry_t, ptr %6, i64 %8
  %10 = load ptr, ptr %9, align 8
  tail call void @free(ptr noundef %10) #16
  %11 = getelementptr inbounds i8, ptr %9, i64 8
  %12 = load ptr, ptr %11, align 8
  tail call void @free(ptr noundef %12) #16
  %13 = load i32, ptr %2, align 8
  %14 = icmp sgt i32 %13, 0
  br i1 %14, label %.lr.ph, label %._crit_edge, !llvm.loop !7

._crit_edge:                                      ; preds = %.lr.ph, %1
  %15 = load ptr, ptr %0, align 8
  tail call void @free(ptr noundef %15) #16
  store ptr null, ptr %0, align 8
  %16 = getelementptr inbounds i8, ptr %0, i64 12
  store i32 0, ptr %16, align 4
  ret void
}